; Function Attrs: mustprogress uwtable
define noundef zeroext i1 @_ZN6google8protobuf10TextFormat6Parser15ParseFromStringESt17basic_string_viewIcSt11char_traitsIcEEPNS0_7MessageE(ptr nocapture noundef nonnull readonly align 8 dereferenceable(48) %this, i64 %input.coerce0, ptr %input.coerce1, ptr noundef %output) local_unnamed_addr #4 align 2 personality ptr @__gxx_personality_v0 {
entry:
  %input_stream = alloca %"class.google::protobuf::io::ArrayInputStream", align 8
  %0 = load ptr, ptr %this, align 8
  %call = tail call fastcc noundef zeroext i1 @_ZN6google8protobuf12_GLOBAL__N_119CheckParseInputSizeISt17basic_string_viewIcSt11char_traitsIcEEEEbRT_PNS0_2io14ErrorCollectorE(i64 %input.coerce0, ptr noundef %0)
  br i1 %call, label %if.end, label %return

if.end:                                           ; preds = %entry
  %conv = trunc i64 %input.coerce0 to i32
  call void @_ZN6google8protobuf2io16ArrayInputStreamC1EPKvii(ptr noundef nonnull align 8 dereferenceable(32) %input_stream, ptr noundef %input.coerce1, i32 noundef %conv, i32 noundef -1)
  %call4 = call noundef zeroext i1 @_ZN6google8protobuf10TextFormat6Parser5ParseEPNS0_2io19ZeroCopyInputStreamEPNS0_7MessageE(ptr noundef nonnull align 8 dereferenceable(48) %this, ptr noundef nonnull %input_stream, ptr noundef %output)
  br label %return

return:                                           ; preds = %if.end, %entry
  %retval.0 = phi i1 [ false, %entry ], [ %call4, %if.end ]
  ret i1 %retval.0
}